Certificate:
    Data:
        Version: 3 (0x2)
        Serial Number: 1 (0x1)
        Signature Algorithm: md5WithRSAEncryption
        Issuer: C=FR, ST=Radius, L=Somewhere, O=Example Inc./emailAddress=admin@example.com, CN=Example Certificate Authority
        Validity
            Not Before: Aug  9 14:35:28 2009 GMT
            Not After : Aug  9 14:35:28 2010 GMT
        Subject: C=FR, ST=Radius, O=Example Inc., CN=Example Server Certificate/emailAddress=admin@example.com
        Subject Public Key Info:
            Public Key Algorithm: rsaEncryption
            RSA Public Key: (2048 bit)
                Modulus (2048 bit):
                    00:cd:44:fe:d1:6c:97:5c:df:ef:89:8d:a0:b9:08:
                    ce:13:b9:4c:14:32:93:45:a0:39:08:c0:99:49:ce:
                    ba:47:e3:42:62:8c:0c:6c:95:44:f4:49:f7:d1:7c:
                    ac:59:1b:7d:6b:68:41:c1:e9:a2:fe:ec:ec:8a:fa:
                    76:d6:8e:2b:12:88:24:78:ef:2c:27:b4:6e:e1:71:
                    ef:77:4d:67:18:23:b2:ff:32:fd:9e:ab:ca:f8:e2:
                    3f:e3:1a:1e:ae:7c:0e:58:6c:fe:8e:d5:8c:d7:ed:
                    e5:8b:d8:2b:d5:27:92:0b:03:ad:b9:0b:9f:8f:9b:
                    bf:19:2f:25:04:3a:71:1c:d7:18:9e:2a:77:0f:a0:
                    d9:0f:59:74:f5:8f:13:c7:ec:b1:36:b9:1f:ef:2e:
                    a8:66:e0:1f:10:a7:33:5c:28:18:c0:fc:db:8e:aa:
                    89:d5:c9:73:d0:53:46:79:6a:93:96:51:d1:19:b4:
                    2d:10:7c:1c:f6:0a:c7:3a:df:65:bf:73:b3:c1:09:
                    08:98:74:a7:91:9c:78:ae:6f:1e:12:53:c9:7d:2d:
                    93:3c:d5:b0:5e:0a:01:8b:ed:f7:60:a7:f2:b6:59:
                    63:f6:9f:b1:97:1c:81:b8:5e:c8:bf:18:d7:1f:62:
                    c0:dc:79:b8:38:57:5d:b5:ad:3f:3b:d5:29:d0:24:
                    f8:5d
                Exponent: 65537 (0x10001)
        X509v3 extensions:
            X509v3 Extended Key Usage: 
                TLS Web Server Authentication
    Signature Algorithm: md5WithRSAEncryption
        17:e8:21:f4:e4:42:08:e1:1b:3b:9c:81:77:33:28:76:a9:36:
        00:80:93:7b:b1:d4:1f:47:7f:fa:15:a3:a4:ec:90:a0:47:45:
        c6:ae:ab:b1:a9:f9:d5:9e:87:a7:7a:a7:9a:ff:60:19:4a:2e:
        6f:6e:af:fd:44:ff:18:8c:7a:b3:1d:05:7a:45:1c:44:f5:51:
        c9:ba:d3:dd:51:86:37:e7:bb:49:34:67:84:67:68:f3:ce:54:
        0c:04:29:bd:f9:17:2b:20:14:73:68:da:04:88:e8:59:99:54:
        8e:40:57:9a:9a:66:99:4a:d7:7e:6a:cd:24:57:71:91:84:e7:
        9e:96:29:c1:eb:8e:8e:a8:b1:86:fc:3c:a6:5a:2a:40:3d:f7:
        88:45:08:a4:1d:f8:fa:36:48:3e:c3:17:21:14:1a:18:b6:78:
        23:ed:68:f5:c4:23:4e:79:2d:54:80:60:a7:dd:00:61:e4:02:
        5f:78:f5:70:5e:ac:2d:34:de:73:a6:ef:e7:67:93:11:da:63:
        a0:fe:a0:aa:84:c8:6d:49:20:4f:f4:5f:f3:0a:c9:1b:72:ed:
        6e:08:6d:25:ae:b5:15:e6:c3:17:9d:43:c1:f8:1c:ec:52:ce:
        41:58:91:ab:2f:e7:c9:74:f7:23:61:89:a0:fe:73:eb:a9:e9:
        5a:1f:bc:fb
-----BEGIN CERTIFICATE-----
MIIDojCCAoqgAwIBAgIBATANBgkqhkiG9w0BAQQFADCBkzELMAkGA1UEBhMCRlIx
DzANBgNVBAgTBlJhZGl1czESMBAGA1UEBxMJU29tZXdoZXJlMRUwEwYDVQQKEwxF
eGFtcGxlIEluYy4xIDAeBgkqhkiG9w0BCQEWEWFkbWluQGV4YW1wbGUuY29tMSYw
JAYDVQQDEx1FeGFtcGxlIENlcnRpZmljYXRlIEF1dGhvcml0eTAeFw0wOTA4MDkx
NDM1MjhaFw0xMDA4MDkxNDM1MjhaMHwxCzAJBgNVBAYTAkZSMQ8wDQYDVQQIEwZS
YWRpdXMxFTATBgNVBAoTDEV4YW1wbGUgSW5jLjEjMCEGA1UEAxMaRXhhbXBsZSBT
ZXJ2ZXIgQ2VydGlmaWNhdGUxIDAeBgkqhkiG9w0BCQEWEWFkbWluQGV4YW1wbGUu
Y29tMIIBIjANBgkqhkiG9w0BAQEFAAOCAQ8AMIIBCgKCAQEAzUT+0WyXXN/viY2g
uQjOE7lMFDKTRaA5CMCZSc66R+NCYowMbJVE9En30XysWRt9a2hBwemi/uzsivp2
1o4rEogkeO8sJ7Ru4XHvd01nGCOy/zL9nqvK+OI/4xoernwOWGz+jtWM1+3li9gr
1SeSCwOtuQufj5u/GS8lBDpxHNcYnip3D6DZD1l09Y8Tx+yxNrkf7y6oZuAfEKcz
XCgYwPzbjqqJ1clz0FNGeWqTllHRGbQtEHwc9grHOt9lv3OzwQkImHSnkZx4rm8e
ElPJfS2TPNWwXgoBi+33YKfytllj9p+xlxyBuF7IvxjXH2LA3Hm4OFddta0/O9Up
0CT4XQIDAQABoxcwFTATBgNVHSUEDDAKBggrBgEFBQcDATANBgkqhkiG9w0BAQQF
AAOCAQEAF+gh9ORCCOEbO5yBdzModqk2AICTe7HUH0d/+hWjpOyQoEdFxq6rsan5
1Z6Hp3qnmv9gGUoub26v/UT/GIx6sx0FekUcRPVRybrT3VGGN+e7STRnhGdo885U
DAQpvfkXKyAUc2jaBIjoWZlUjkBXmppmmUrXfmrNJFdxkYTnnpYpweuOjqixhvw8
ploqQD33iEUIpB34+jZIPsMXIRQaGLZ4I+1o9cQjTnktVIBgp90AYeQCX3j1cF6s
LTTec6bv52eTEdpjoP6gqoTIbUkgT/Rf8wrJG3LtbghtJa61FebDF51Dwfgc7FLO
QViRqy/nyXT3I2GJoP5z66npWh+8+w==
-----END CERTIFICATE-----
